target datalayout = "e-m:e-p270:32:32-p271:32:32-p272:64:64-i64:64-i128:128-f80:128-n8:16:32:64-S128"
target triple = "x86_64-pc-linux-gnu"

%struct._GString = type { ptr, i64, i64 }
%struct._dfilter_macro_t = type { ptr, ptr, i8, ptr, ptr, i32, ptr }

@macros_table = internal global ptr null, align 8
@.str.11 = private unnamed_addr constant [26 x i8] c"macro '%s' does not exist\00", align 1
@.str.12 = private unnamed_addr constant [69 x i8] c"wrong number of arguments for macro '%s', expecting %d instead of %d\00", align 1
@.str.13 = private unnamed_addr constant [5 x i8] c"%s%s\00", align 1

; Function Attrs: null_pointer_is_valid sspstrong uwtable
define internal ptr @dfilter_macro_resolve(ptr noundef %0, ptr noundef %1, ptr noundef %2) #0 {
  %4 = alloca ptr, align 8
  %5 = alloca ptr, align 8
  %6 = alloca ptr, align 8
  %7 = alloca ptr, align 8
  %8 = alloca ptr, align 8
  %9 = alloca i32, align 4
  %10 = alloca ptr, align 8
  %11 = alloca ptr, align 8
  %12 = alloca ptr, align 8
  %13 = alloca ptr, align 8
  %14 = alloca i32, align 4
  store ptr %0, ptr %5, align 8
  store ptr %1, ptr %6, align 8
  store ptr %2, ptr %7, align 8
  call void @llvm.lifetime.start.p0(i64 8, ptr %8) #9
  call void @llvm.lifetime.start.p0(i64 4, ptr %9) #9
  store i32 0, ptr %9, align 4
  call void @llvm.lifetime.start.p0(i64 8, ptr %10) #9
  store ptr null, ptr %10, align 8
  call void @llvm.lifetime.start.p0(i64 8, ptr %11) #9
  call void @llvm.lifetime.start.p0(i64 8, ptr %12) #9
  call void @llvm.lifetime.start.p0(i64 8, ptr %13) #9
  %15 = load ptr, ptr @macros_table, align 8
  %16 = load ptr, ptr %5, align 8
  %17 = call ptr @g_hash_table_lookup(ptr noundef %15, ptr noundef %16)
  store ptr %17, ptr %10, align 8
  %18 = load ptr, ptr %10, align 8
  %19 = icmp ne ptr %18, null
  br i1 %19, label %20, label %25

20:                                               ; preds = %3
  %21 = load ptr, ptr %10, align 8
  %22 = getelementptr inbounds nuw %struct._dfilter_macro_t, ptr %21, i32 0, i32 2
  %23 = load i8, ptr %22, align 8, !range !11, !noundef !12
  %24 = trunc i8 %23 to i1
  br i1 %24, label %33, label %25

25:                                               ; preds = %20, %3
  %26 = load ptr, ptr %7, align 8
  %27 = icmp ne ptr %26, null
  br i1 %27, label %28, label %32

28:                                               ; preds = %25
  %29 = load ptr, ptr %5, align 8
  %30 = call ptr (i32, ptr, ptr, ...) @df_error_new_printf(i32 noundef -1, ptr noundef null, ptr noundef @.str.11, ptr noundef %29)
  %31 = load ptr, ptr %7, align 8
  store ptr %30, ptr %31, align 8
  br label %32

32:                                               ; preds = %28, %25
  store ptr null, ptr %4, align 8
  store i32 1, ptr %14, align 4
  br label %105

33:                                               ; preds = %20
  %34 = load ptr, ptr %6, align 8
  %35 = icmp ne ptr %34, null
  br i1 %35, label %36, label %48

36:                                               ; preds = %33
  br label %37

37:                                               ; preds = %44, %36
  %38 = load ptr, ptr %6, align 8
  %39 = load i32, ptr %9, align 4
  %40 = sext i32 %39 to i64
  %41 = getelementptr ptr, ptr %38, i64 %40
  %42 = load ptr, ptr %41, align 8
  %43 = icmp ne ptr %42, null
  br i1 %43, label %44, label %47

44:                                               ; preds = %37
  %45 = load i32, ptr %9, align 4
  %46 = add i32 %45, 1
  store i32 %46, ptr %9, align 4
  br label %37, !llvm.loop !18

47:                                               ; preds = %37
  br label %48

48:                                               ; preds = %47, %33
  %49 = load i32, ptr %9, align 4
  %50 = load ptr, ptr %10, align 8
  %51 = getelementptr inbounds nuw %struct._dfilter_macro_t, ptr %50, i32 0, i32 5
  %52 = load i32, ptr %51, align 8
  %53 = icmp ne i32 %49, %52
  br i1 %53, label %54, label %66

54:                                               ; preds = %48
  %55 = load ptr, ptr %7, align 8
  %56 = icmp ne ptr %55, null
  br i1 %56, label %57, label %65

57:                                               ; preds = %54
  %58 = load ptr, ptr %5, align 8
  %59 = load ptr, ptr %10, align 8
  %60 = getelementptr inbounds nuw %struct._dfilter_macro_t, ptr %59, i32 0, i32 5
  %61 = load i32, ptr %60, align 8
  %62 = load i32, ptr %9, align 4
  %63 = call ptr (i32, ptr, ptr, ...) @df_error_new_printf(i32 noundef -1, ptr noundef null, ptr noundef @.str.12, ptr noundef %58, i32 noundef %61, i32 noundef %62)
  %64 = load ptr, ptr %7, align 8
  store ptr %63, ptr %64, align 8
  br label %65

65:                                               ; preds = %57, %54
  store ptr null, ptr %4, align 8
  store i32 1, ptr %14, align 4
  br label %105

66:                                               ; preds = %48
  %67 = load ptr, ptr %10, align 8
  %68 = getelementptr inbounds nuw %struct._dfilter_macro_t, ptr %67, i32 0, i32 4
  %69 = load ptr, ptr %68, align 8
  store ptr %69, ptr %11, align 8
  %70 = load ptr, ptr %10, align 8
  %71 = getelementptr inbounds nuw %struct._dfilter_macro_t, ptr %70, i32 0, i32 3
  %72 = load ptr, ptr %71, align 8
  store ptr %72, ptr %12, align 8
  %73 = load ptr, ptr %12, align 8
  %74 = getelementptr ptr, ptr %73, i32 1
  store ptr %74, ptr %12, align 8
  %75 = load ptr, ptr %73, align 8
  %76 = call ptr @g_string_new(ptr noundef %75)
  store ptr %76, ptr %8, align 8
  %77 = load ptr, ptr %6, align 8
  %78 = icmp ne ptr %77, null
  br i1 %78, label %79, label %97

79:                                               ; preds = %66
  br label %80

80:                                               ; preds = %84, %79
  %81 = load ptr, ptr %12, align 8
  %82 = load ptr, ptr %81, align 8
  %83 = icmp ne ptr %82, null
  br i1 %83, label %84, label %96

84:                                               ; preds = %80
  %85 = load ptr, ptr %8, align 8
  %86 = load ptr, ptr %6, align 8
  %87 = load ptr, ptr %11, align 8
  %88 = getelementptr i32, ptr %87, i32 1
  store ptr %88, ptr %11, align 8
  %89 = load i32, ptr %87, align 4
  %90 = sext i32 %89 to i64
  %91 = getelementptr ptr, ptr %86, i64 %90
  %92 = load ptr, ptr %91, align 8
  %93 = load ptr, ptr %12, align 8
  %94 = getelementptr ptr, ptr %93, i32 1
  store ptr %94, ptr %12, align 8
  %95 = load ptr, ptr %93, align 8
  call void (ptr, ptr, ...) @g_string_append_printf(ptr noundef %85, ptr noundef @.str.13, ptr noundef %92, ptr noundef %95)
  br label %80, !llvm.loop !19

96:                                               ; preds = %80
  br label %97

97:                                               ; preds = %96, %66
  %98 = load ptr, ptr %8, align 8
  %99 = getelementptr inbounds nuw %struct._GString, ptr %98, i32 0, i32 0
  %100 = load ptr, ptr %99, align 8
  %101 = call noalias ptr @wmem_strdup(ptr noundef null, ptr noundef %100)
  store ptr %101, ptr %13, align 8
  %102 = load ptr, ptr %8, align 8
  %103 = call ptr @g_string_free(ptr noundef %102, i32 noundef 1)
  %104 = load ptr, ptr %13, align 8
  store ptr %104, ptr %4, align 8
  store i32 1, ptr %14, align 4
  br label %105

105:                                              ; preds = %97, %65, %32
  call void @llvm.lifetime.end.p0(i64 8, ptr %13) #9
  call void @llvm.lifetime.end.p0(i64 8, ptr %12) #9
  call void @llvm.lifetime.end.p0(i64 8, ptr %11) #9
  call void @llvm.lifetime.end.p0(i64 8, ptr %10) #9
  call void @llvm.lifetime.end.p0(i64 4, ptr %9) #9
  call void @llvm.lifetime.end.p0(i64 8, ptr %8) #9
  %106 = load ptr, ptr %4, align 8
  ret ptr %106
}