; Function Attrs: null_pointer_is_valid sspstrong uwtable
define internal fastcc noalias ptr @dfilter_macro_resolve(ptr noundef %0, ptr noundef readonly captures(address_is_null) %1, ptr noundef writeonly captures(address_is_null) %2) unnamed_addr #0 {
  %4 = load ptr, ptr @macros_table, align 8
  %5 = tail call ptr @g_hash_table_lookup(ptr noundef %4, ptr noundef %0)
  %.not = icmp eq ptr %5, null
  br i1 %.not, label %10, label %6

6:                                                ; preds = %3
  %7 = getelementptr inbounds nuw i8, ptr %5, i64 16
  %8 = load i8, ptr %7, align 8, !range !16, !noundef !17
  %9 = trunc nuw i8 %8 to i1
  br i1 %9, label %13, label %10

10:                                               ; preds = %6, %3
  %.not37 = icmp eq ptr %2, null
  br i1 %.not37, label %41, label %11

11:                                               ; preds = %10
  %12 = tail call ptr (i32, ptr, ptr, ...) @df_error_new_printf(i32 noundef -1, ptr noundef null, ptr noundef nonnull @.str.11, ptr noundef %0)
  store ptr %12, ptr %2, align 8
  br label %41

13:                                               ; preds = %6
  %.not38 = icmp eq ptr %1, null
  br i1 %.not38, label %.loopexit44, label %.preheader43

.preheader43:                                     ; preds = %13, %.preheader43
  %.1 = phi i32 [ %17, %.preheader43 ], [ 0, %13 ]
  %14 = sext i32 %.1 to i64
  %15 = getelementptr ptr, ptr %1, i64 %14
  %16 = load ptr, ptr %15, align 8
  %.not39 = icmp eq ptr %16, null
  %17 = add i32 %.1, 1
  br i1 %.not39, label %.loopexit44, label %.preheader43, !llvm.loop !18

.loopexit44:                                      ; preds = %.preheader43, %13
  %.031 = phi i32 [ 0, %13 ], [ %.1, %.preheader43 ]
  %18 = getelementptr inbounds nuw i8, ptr %5, i64 40
  %19 = load i32, ptr %18, align 8
  %.not40 = icmp eq i32 %.031, %19
  br i1 %.not40, label %23, label %20

20:                                               ; preds = %.loopexit44
  %.not42 = icmp eq ptr %2, null
  br i1 %.not42, label %41, label %21

21:                                               ; preds = %20
  %22 = tail call ptr (i32, ptr, ptr, ...) @df_error_new_printf(i32 noundef -1, ptr noundef null, ptr noundef nonnull @.str.12, ptr noundef %0, i32 noundef %19, i32 noundef %.031)
  store ptr %22, ptr %2, align 8
  br label %41

23:                                               ; preds = %.loopexit44
  %24 = getelementptr inbounds nuw i8, ptr %5, i64 32
  %25 = load ptr, ptr %24, align 8
  %26 = getelementptr inbounds nuw i8, ptr %5, i64 24
  %27 = load ptr, ptr %26, align 8
  %28 = load ptr, ptr %27, align 8
  %29 = tail call ptr @g_string_new(ptr noundef %28)
  br i1 %.not38, label %.loopexit, label %.preheader

.preheader:                                       ; preds = %23
  %.02945 = getelementptr i8, ptr %27, i64 8
  %30 = load ptr, ptr %.02945, align 8
  %.not4146 = icmp eq ptr %30, null
  br i1 %.not4146, label %.loopexit, label %.lr.ph

.lr.ph:                                           ; preds = %.preheader, %.lr.ph
  %31 = phi ptr [ %37, %.lr.ph ], [ %30, %.preheader ]
  %.02948 = phi ptr [ %.029, %.lr.ph ], [ %.02945, %.preheader ]
  %.03047 = phi ptr [ %32, %.lr.ph ], [ %25, %.preheader ]
  %32 = getelementptr i8, ptr %.03047, i64 4
  %33 = load i32, ptr %.03047, align 4
  %34 = sext i32 %33 to i64
  %35 = getelementptr ptr, ptr %1, i64 %34
  %36 = load ptr, ptr %35, align 8
  tail call void (ptr, ptr, ...) @g_string_append_printf(ptr noundef %29, ptr noundef nonnull @.str.13, ptr noundef %36, ptr noundef nonnull %31)
  %.029 = getelementptr i8, ptr %.02948, i64 8
  %37 = load ptr, ptr %.029, align 8
  %.not41 = icmp eq ptr %37, null
  br i1 %.not41, label %.loopexit, label %.lr.ph, !llvm.loop !19

.loopexit:                                        ; preds = %.lr.ph, %.preheader, %23
  %38 = load ptr, ptr %29, align 8
  %39 = tail call noalias ptr @wmem_strdup(ptr noundef null, ptr noundef %38)
  %40 = tail call ptr @g_string_free(ptr noundef %29, i32 noundef 1)
  br label %41

41:                                               ; preds = %20, %21, %10, %11, %.loopexit
  %.0 = phi ptr [ %39, %.loopexit ], [ null, %11 ], [ null, %10 ], [ null, %21 ], [ null, %20 ]
  ret ptr %.0
}